; Function Attrs: mustprogress nofree nounwind willreturn memory(write, argmem: none, inaccessiblemem: readwrite) uwtable
define noalias noundef ptr @ZSTDv01_createDCtx() local_unnamed_addr #5 {
  %1 = tail call noalias dereferenceable_or_null(10288) ptr @malloc(i64 noundef 10288) #17
  %2 = icmp eq ptr %1, null
  br i1 %2, label %7, label %3

3:                                                ; preds = %0
  %4 = getelementptr inbounds nuw i8, ptr %1, i64 10272
  store i64 4, ptr %4, align 8, !tbaa !45
  %5 = getelementptr inbounds nuw i8, ptr %1, i64 10284
  store i32 0, ptr %5, align 4, !tbaa !46
  %6 = getelementptr inbounds nuw i8, ptr %1, i64 10256
  tail call void @llvm.memset.p0.i64(ptr noundef nonnull align 8 dereferenceable(16) %6, i8 0, i64 16, i1 false)
  br label %7

7:                                                ; preds = %0, %3
  ret ptr %1
}